target datalayout = "e-m:e-p270:32:32-p271:32:32-p272:64:64-i64:64-i128:128-f80:128-n8:16:32:64-S128"
target triple = "x86_64-pc-linux-gnu"

%struct.darktable_t = type { %struct.dt_codepath_t, i32, i32, ptr, ptr, ptr, ptr, ptr, ptr, ptr, ptr, ptr, ptr, ptr, ptr, ptr, ptr, ptr, ptr, ptr, ptr, ptr, ptr, ptr, ptr, ptr, ptr, ptr, ptr, ptr, [64 x %struct.dt_pthread_mutex_t], %struct.dt_pthread_mutex_t, %struct.dt_pthread_mutex_t, %struct.dt_pthread_mutex_t, %struct.dt_pthread_mutex_t, %struct.dt_pthread_mutex_t, ptr, ptr, ptr, ptr, ptr, ptr, ptr, ptr, ptr, ptr, ptr, ptr, ptr, %struct.dt_lua_state_t, ptr, double, ptr, i32, [47 x i32], i32, i32, ptr, ptr, %struct.dt_sys_resources_t, %struct.dt_backthumb_t, %struct.dt_gimp_t }
%struct.dt_codepath_t = type { i8, [3 x i8] }
%struct.dt_pthread_mutex_t = type { %union.pthread_mutex_t }
%union.pthread_mutex_t = type { %struct.__pthread_mutex_s }
%struct.__pthread_mutex_s = type { i32, i32, i32, i32, i32, i16, i16, %struct.__pthread_internal_list }
%struct.__pthread_internal_list = type { ptr, ptr }
%struct.dt_lua_state_t = type { i32 }
%struct.dt_sys_resources_t = type { i64, i64, ptr, ptr, i32 }
%struct.dt_backthumb_t = type { double, double, i32, i32, i32, i32 }
%struct.dt_gimp_t = type { i32, ptr, ptr, i32, i32 }
%struct._GVariantBuilder = type { %union.anon }
%union.anon = type { %struct.anon }
%struct.anon = type { i64, ptr, [14 x i64] }
%struct.dt_dbus_t = type { i32, ptr, i32, i32, ptr }
%struct._GError = type { i32, i32, ptr }
%struct._dt_progress_t = type { double, ptr, i32, %struct.dt_pthread_mutex_t, ptr, ptr, ptr }
%struct.dt_control_t = type { i32, ptr, %struct.dt_action_t, %struct.dt_action_t, %struct.dt_action_t, %struct.dt_action_t, %struct.dt_action_t, %struct.dt_action_t, %struct.dt_action_t, %struct.dt_action_t, %struct.dt_action_t, %struct.dt_action_t, %struct.dt_action_t, ptr, ptr, ptr, i32, ptr, i32, i32, ptr, ptr, [256 x i8], i32, double, i32, i32, i64, i32, i32, i32, double, double, i32, i32, i32, i32, i32, i32, [8 x [1000 x i8]], i32, i32, %struct.dt_pthread_mutex_t, i32, i32, [2 x [300 x i8]], i32, i32, %struct.dt_pthread_mutex_t, %struct.dt_pthread_mutex_t, %struct.dt_pthread_mutex_t, double, i32, i32, i32, %struct.dt_pthread_mutex_t, %struct.dt_pthread_mutex_t, %union.pthread_cond_t, i32, ptr, i64, i64, ptr, [5 x ptr], [5 x i64], %struct.dt_pthread_mutex_t, [3 x ptr], [3 x i8], [3 x i64], %struct.anon.1, %struct.anon.3 }
%struct.dt_action_t = type { i32, ptr, ptr, ptr, ptr, ptr }
%union.pthread_cond_t = type { %struct.__pthread_cond_s }
%struct.__pthread_cond_s = type { %union.__atomic_wide_counter, %union.__atomic_wide_counter, [2 x i32], [2 x i32], i32, i32, [2 x i32] }
%union.__atomic_wide_counter = type { i64 }
%struct.anon.1 = type { ptr, i64, i64, double, %struct.dt_pthread_mutex_t, %struct.anon.2 }
%struct.anon.2 = type { ptr, ptr, ptr, ptr, ptr, ptr }
%struct.anon.3 = type { %struct.anon.4 }
%struct.anon.4 = type { ptr, ptr }

@darktable = external global %struct.darktable_t, align 8
@.str = private unnamed_addr constant [6 x i8] c"a{sv}\00", align 1
@.str.1 = private unnamed_addr constant [5 x i8] c"{sv}\00", align 1
@.str.2 = private unnamed_addr constant [17 x i8] c"progress-visible\00", align 1
@.str.3 = private unnamed_addr constant [9 x i8] c"(sa{sv})\00", align 1
@.str.4 = private unnamed_addr constant [46 x i8] c"application://org.darktable.darktable.desktop\00", align 1
@.str.5 = private unnamed_addr constant [20 x i8] c"com.canonical.Unity\00", align 1
@.str.6 = private unnamed_addr constant [11 x i8] c"/darktable\00", align 1
@.str.7 = private unnamed_addr constant [34 x i8] c"com.canonical.Unity.LauncherEntry\00", align 1
@.str.8 = private unnamed_addr constant [7 x i8] c"Update\00", align 1
@.str.10 = private unnamed_addr constant [9 x i8] c"progress\00", align 1
@.str.11 = private unnamed_addr constant [33 x i8] c"[progress_create] dbus error: %s\00", align 1

; Function Attrs: inlinehint nounwind uwtable
define internal i32 @dt_pthread_mutex_unlock(ptr noundef %0) #4 {
  %2 = alloca ptr, align 8
  store ptr %0, ptr %2, align 8, !tbaa !87
  %3 = load ptr, ptr %2, align 8, !tbaa !87
  %4 = getelementptr inbounds nuw %struct.dt_pthread_mutex_t, ptr %3, i32 0, i32 0
  %5 = call i32 @pthread_mutex_unlock(ptr noundef %4) #6
  ret i32 %5
}

; Function Attrs: nounwind uwtable
define internal void @global_progress_start(ptr noundef %0, ptr noundef %1) #0 {
  %3 = alloca ptr, align 8
  %4 = alloca ptr, align 8
  %5 = alloca ptr, align 8
  %6 = alloca %struct._GVariantBuilder, align 8
  %7 = alloca ptr, align 8
  store ptr %0, ptr %3, align 8, !tbaa !6
  store ptr %1, ptr %4, align 8, !tbaa !62
  %8 = load ptr, ptr %3, align 8, !tbaa !6
  %9 = getelementptr inbounds nuw %struct.dt_control_t, ptr %8, i32 0, i32 69
  %10 = getelementptr inbounds nuw %struct.anon.1, ptr %9, i32 0, i32 2
  %11 = load i64, ptr %10, align 8, !tbaa !90
  %12 = add i64 %11, 1
  store i64 %12, ptr %10, align 8, !tbaa !90
  %13 = load ptr, ptr getelementptr inbounds nuw (%struct.darktable_t, ptr @darktable, i32 0, i32 26), align 8, !tbaa !11
  %14 = icmp ne ptr %13, null
  br i1 %14, label %15, label %56

15:                                               ; preds = %2
  %16 = load ptr, ptr getelementptr inbounds nuw (%struct.darktable_t, ptr @darktable, i32 0, i32 26), align 8, !tbaa !11
  %17 = getelementptr inbounds nuw %struct.dt_dbus_t, ptr %16, i32 0, i32 4
  %18 = load ptr, ptr %17, align 8, !tbaa !49
  %19 = icmp ne ptr %18, null
  br i1 %19, label %20, label %56

20:                                               ; preds = %15
  call void @llvm.lifetime.start.p0(i64 8, ptr %5) #6
  store ptr null, ptr %5, align 8, !tbaa !53
  %21 = load ptr, ptr getelementptr inbounds nuw (%struct.darktable_t, ptr @darktable, i32 0, i32 26), align 8, !tbaa !11
  %22 = getelementptr inbounds nuw %struct.dt_dbus_t, ptr %21, i32 0, i32 4
  %23 = load ptr, ptr %22, align 8, !tbaa !49
  %24 = call ptr @g_type_check_instance_cast(ptr noundef %23, i64 noundef 80)
  %25 = call ptr @g_object_ref(ptr noundef %24)
  call void @llvm.lifetime.start.p0(i64 128, ptr %6) #6
  %26 = call ptr @g_variant_type_checked_(ptr noundef @.str)
  call void @g_variant_builder_init(ptr noundef %6, ptr noundef %26)
  %27 = load ptr, ptr %3, align 8, !tbaa !6
  %28 = getelementptr inbounds nuw %struct.dt_control_t, ptr %27, i32 0, i32 69
  %29 = getelementptr inbounds nuw %struct.anon.1, ptr %28, i32 0, i32 3
  %30 = load double, ptr %29, align 8, !tbaa !91
  %31 = call ptr @g_variant_new_double(double noundef %30)
  call void (ptr, ptr, ...) @g_variant_builder_add(ptr noundef %6, ptr noundef @.str.1, ptr noundef @.str.10, ptr noundef %31)
  %32 = call ptr @g_variant_new_boolean(i32 noundef 1)
  call void (ptr, ptr, ...) @g_variant_builder_add(ptr noundef %6, ptr noundef @.str.1, ptr noundef @.str.2, ptr noundef %32)
  call void @llvm.lifetime.start.p0(i64 8, ptr %7) #6
  %33 = call ptr (ptr, ...) @g_variant_new(ptr noundef @.str.3, ptr noundef @.str.4, ptr noundef %6)
  store ptr %33, ptr %7, align 8, !tbaa !55
  %34 = load ptr, ptr getelementptr inbounds nuw (%struct.darktable_t, ptr @darktable, i32 0, i32 26), align 8, !tbaa !11
  %35 = getelementptr inbounds nuw %struct.dt_dbus_t, ptr %34, i32 0, i32 4
  %36 = load ptr, ptr %35, align 8, !tbaa !49
  %37 = load ptr, ptr %7, align 8, !tbaa !55
  %38 = call i32 @g_dbus_connection_emit_signal(ptr noundef %36, ptr noundef @.str.5, ptr noundef @.str.6, ptr noundef @.str.7, ptr noundef @.str.8, ptr noundef %37, ptr noundef %5)
  %39 = load ptr, ptr %5, align 8, !tbaa !53
  %40 = icmp ne ptr %39, null
  br i1 %40, label %41, label %55

41:                                               ; preds = %20
  br label %42

42:                                               ; preds = %41
  %43 = load i32, ptr getelementptr inbounds nuw (%struct.darktable_t, ptr @darktable, i32 0, i32 2), align 8, !tbaa !57
  %44 = xor i32 %43, -1
  %45 = and i32 0, %44
  %46 = icmp ne i32 %45, 0
  br i1 %46, label %51, label %47

47:                                               ; preds = %42
  %48 = load ptr, ptr %5, align 8, !tbaa !53
  %49 = getelementptr inbounds nuw %struct._GError, ptr %48, i32 0, i32 2
  %50 = load ptr, ptr %49, align 8, !tbaa !58
  call void (ptr, ...) @dt_print_ext(ptr noundef @.str.11, ptr noundef %50)
  br label %51

51:                                               ; preds = %47, %42
  br label %52

52:                                               ; preds = %51
  br label %53

53:                                               ; preds = %52
  %54 = load ptr, ptr %5, align 8, !tbaa !53
  call void @g_error_free(ptr noundef %54)
  br label %55

55:                                               ; preds = %53, %20
  call void @llvm.lifetime.end.p0(i64 8, ptr %7) #6
  call void @llvm.lifetime.end.p0(i64 128, ptr %6) #6
  call void @llvm.lifetime.end.p0(i64 8, ptr %5) #6
  br label %56

56:                                               ; preds = %55, %15, %2
  ret void
}

; Function Attrs: inlinehint nounwind uwtable
define internal i32 @dt_pthread_mutex_lock(ptr noundef %0) #4 {
  %2 = alloca ptr, align 8
  store ptr %0, ptr %2, align 8, !tbaa !87
  %3 = load ptr, ptr %2, align 8, !tbaa !87
  %4 = getelementptr inbounds nuw %struct.dt_pthread_mutex_t, ptr %3, i32 0, i32 0
  %5 = call i32 @pthread_mutex_lock(ptr noundef %4) #6
  ret i32 %5
}

; Function Attrs: inlinehint nounwind uwtable
define internal i32 @dt_pthread_mutex_init(ptr noundef %0, ptr noundef %1) #4 {
  %3 = alloca ptr, align 8
  %4 = alloca ptr, align 8
  store ptr %0, ptr %3, align 8, !tbaa !87
  store ptr %1, ptr %4, align 8, !tbaa !89
  %5 = load ptr, ptr %3, align 8, !tbaa !87
  %6 = getelementptr inbounds nuw %struct.dt_pthread_mutex_t, ptr %5, i32 0, i32 0
  %7 = load ptr, ptr %4, align 8, !tbaa !89
  %8 = call i32 @pthread_mutex_init(ptr noundef %6, ptr noundef %7) #6
  ret i32 %8
}

; Function Attrs: nounwind uwtable
define ptr @dt_control_progress_create(ptr noundef %0, i32 noundef %1, ptr noundef %2) #0 {
  %4 = alloca ptr, align 8
  %5 = alloca i32, align 4
  %6 = alloca ptr, align 8
  %7 = alloca ptr, align 8
  store ptr %0, ptr %4, align 8, !tbaa !6
  store i32 %1, ptr %5, align 4, !tbaa !60
  store ptr %2, ptr %6, align 8, !tbaa !61
  call void @llvm.lifetime.start.p0(i64 8, ptr %7) #6
  %8 = call noalias ptr @calloc(i64 noundef 1, i64 noundef 88) #7
  store ptr %8, ptr %7, align 8, !tbaa !62
  %9 = load ptr, ptr %7, align 8, !tbaa !62
  %10 = getelementptr inbounds nuw %struct._dt_progress_t, ptr %9, i32 0, i32 3
  %11 = call i32 @dt_pthread_mutex_init(ptr noundef %10, ptr noundef null)
  %12 = load ptr, ptr %6, align 8, !tbaa !61
  %13 = call noalias ptr @g_strdup(ptr noundef %12)
  %14 = load ptr, ptr %7, align 8, !tbaa !62
  %15 = getelementptr inbounds nuw %struct._dt_progress_t, ptr %14, i32 0, i32 1
  store ptr %13, ptr %15, align 8, !tbaa !64
  %16 = load i32, ptr %5, align 4, !tbaa !60
  %17 = load ptr, ptr %7, align 8, !tbaa !62
  %18 = getelementptr inbounds nuw %struct._dt_progress_t, ptr %17, i32 0, i32 2
  store i32 %16, ptr %18, align 8, !tbaa !66
  %19 = load ptr, ptr %4, align 8, !tbaa !6
  %20 = getelementptr inbounds nuw %struct.dt_control_t, ptr %19, i32 0, i32 69
  %21 = getelementptr inbounds nuw %struct.anon.1, ptr %20, i32 0, i32 4
  %22 = call i32 @dt_pthread_mutex_lock(ptr noundef %21)
  %23 = load ptr, ptr %4, align 8, !tbaa !6
  %24 = getelementptr inbounds nuw %struct.dt_control_t, ptr %23, i32 0, i32 69
  %25 = getelementptr inbounds nuw %struct.anon.1, ptr %24, i32 0, i32 0
  %26 = load ptr, ptr %25, align 8, !tbaa !67
  %27 = load ptr, ptr %7, align 8, !tbaa !62
  %28 = call ptr @g_list_append(ptr noundef %26, ptr noundef %27)
  %29 = load ptr, ptr %4, align 8, !tbaa !6
  %30 = getelementptr inbounds nuw %struct.dt_control_t, ptr %29, i32 0, i32 69
  %31 = getelementptr inbounds nuw %struct.anon.1, ptr %30, i32 0, i32 0
  store ptr %28, ptr %31, align 8, !tbaa !67
  %32 = load ptr, ptr %4, align 8, !tbaa !6
  %33 = getelementptr inbounds nuw %struct.dt_control_t, ptr %32, i32 0, i32 69
  %34 = getelementptr inbounds nuw %struct.anon.1, ptr %33, i32 0, i32 1
  %35 = load i64, ptr %34, align 8, !tbaa !83
  %36 = add i64 %35, 1
  store i64 %36, ptr %34, align 8, !tbaa !83
  %37 = load i32, ptr %5, align 4, !tbaa !60
  %38 = icmp ne i32 %37, 0
  br i1 %38, label %39, label %42

39:                                               ; preds = %3
  %40 = load ptr, ptr %4, align 8, !tbaa !6
  %41 = load ptr, ptr %7, align 8, !tbaa !62
  call void @global_progress_start(ptr noundef %40, ptr noundef %41)
  br label %42

42:                                               ; preds = %39, %3
  %43 = load ptr, ptr %4, align 8, !tbaa !6
  %44 = getelementptr inbounds nuw %struct.dt_control_t, ptr %43, i32 0, i32 69
  %45 = getelementptr inbounds nuw %struct.anon.1, ptr %44, i32 0, i32 5
  %46 = getelementptr inbounds nuw %struct.anon.2, ptr %45, i32 0, i32 0
  %47 = load ptr, ptr %46, align 8, !tbaa !84
  %48 = icmp ne ptr %47, null
  br i1 %48, label %49, label %65

49:                                               ; preds = %42
  %50 = load ptr, ptr %4, align 8, !tbaa !6
  %51 = getelementptr inbounds nuw %struct.dt_control_t, ptr %50, i32 0, i32 69
  %52 = getelementptr inbounds nuw %struct.anon.1, ptr %51, i32 0, i32 5
  %53 = getelementptr inbounds nuw %struct.anon.2, ptr %52, i32 0, i32 1
  %54 = load ptr, ptr %53, align 8, !tbaa !85
  %55 = load ptr, ptr %4, align 8, !tbaa !6
  %56 = getelementptr inbounds nuw %struct.dt_control_t, ptr %55, i32 0, i32 69
  %57 = getelementptr inbounds nuw %struct.anon.1, ptr %56, i32 0, i32 5
  %58 = getelementptr inbounds nuw %struct.anon.2, ptr %57, i32 0, i32 0
  %59 = load ptr, ptr %58, align 8, !tbaa !84
  %60 = load i32, ptr %5, align 4, !tbaa !60
  %61 = load ptr, ptr %6, align 8, !tbaa !61
  %62 = call ptr %54(ptr noundef %59, i32 noundef %60, ptr noundef %61)
  %63 = load ptr, ptr %7, align 8, !tbaa !62
  %64 = getelementptr inbounds nuw %struct._dt_progress_t, ptr %63, i32 0, i32 4
  store ptr %62, ptr %64, align 8, !tbaa !86
  br label %65

65:                                               ; preds = %49, %42
  %66 = load ptr, ptr %4, align 8, !tbaa !6
  %67 = getelementptr inbounds nuw %struct.dt_control_t, ptr %66, i32 0, i32 69
  %68 = getelementptr inbounds nuw %struct.anon.1, ptr %67, i32 0, i32 4
  %69 = call i32 @dt_pthread_mutex_unlock(ptr noundef %68)
  %70 = load ptr, ptr %7, align 8, !tbaa !62
  call void @llvm.lifetime.end.p0(i64 8, ptr %7) #6
  ret ptr %70
}