; Function Attrs: nounwind uwtable
define noundef ptr @dt_control_progress_create(ptr noundef %0, i32 noundef %1, ptr noundef %2) local_unnamed_addr #0 {
  %4 = alloca ptr, align 8
  %5 = alloca %struct._GVariantBuilder, align 8
  %6 = tail call noalias dereferenceable_or_null(88) ptr @calloc(i64 noundef 1, i64 noundef 88) #7
  %7 = getelementptr inbounds nuw i8, ptr %6, i64 24
  %8 = tail call i32 @pthread_mutex_init(ptr noundef nonnull %7, ptr noundef null) #6
  %9 = tail call noalias ptr @g_strdup(ptr noundef %2) #6
  %10 = getelementptr inbounds nuw i8, ptr %6, i64 8
  store ptr %9, ptr %10, align 8, !tbaa !56
  %11 = getelementptr inbounds nuw i8, ptr %6, i64 16
  store i32 %1, ptr %11, align 8, !tbaa !58
  %12 = getelementptr inbounds nuw i8, ptr %0, i64 10104
  %13 = getelementptr inbounds nuw i8, ptr %0, i64 10136
  %14 = tail call i32 @pthread_mutex_lock(ptr noundef nonnull %13) #6
  %15 = load ptr, ptr %12, align 8, !tbaa !59
  %16 = tail call ptr @g_list_append(ptr noundef %15, ptr noundef %6) #6
  store ptr %16, ptr %12, align 8, !tbaa !59
  %17 = getelementptr inbounds nuw i8, ptr %0, i64 10112
  %18 = load i64, ptr %17, align 8, !tbaa !75
  %19 = add i64 %18, 1
  store i64 %19, ptr %17, align 8, !tbaa !75
  %.not = icmp eq i32 %1, 0
  br i1 %.not, label %global_progress_start.exit, label %20

20:                                               ; preds = %3
  %21 = getelementptr inbounds nuw i8, ptr %0, i64 10120
  %22 = load i64, ptr %21, align 8, !tbaa !76
  %23 = add i64 %22, 1
  store i64 %23, ptr %21, align 8, !tbaa !76
  %24 = load ptr, ptr getelementptr inbounds nuw (i8, ptr @darktable, i64 200), align 8, !tbaa !6
  %.not.i = icmp eq ptr %24, null
  br i1 %.not.i, label %global_progress_start.exit, label %25

25:                                               ; preds = %20
  %26 = getelementptr inbounds nuw i8, ptr %24, i64 24
  %27 = load ptr, ptr %26, align 8, !tbaa !48
  %.not4.i = icmp eq ptr %27, null
  br i1 %.not4.i, label %global_progress_start.exit, label %28

28:                                               ; preds = %25
  call void @llvm.lifetime.start.p0(i64 8, ptr nonnull %4) #6
  store ptr null, ptr %4, align 8, !tbaa !52
  %29 = tail call ptr @g_type_check_instance_cast(ptr noundef nonnull %27, i64 noundef 80) #6
  %30 = tail call ptr @g_object_ref(ptr noundef %29) #6
  call void @llvm.lifetime.start.p0(i64 128, ptr nonnull %5) #6
  %31 = tail call ptr @g_variant_type_checked_(ptr noundef nonnull @.str) #6
  call void @g_variant_builder_init(ptr noundef nonnull %5, ptr noundef %31) #6
  %32 = getelementptr inbounds nuw i8, ptr %0, i64 10128
  %33 = load double, ptr %32, align 8, !tbaa !77
  %34 = call ptr @g_variant_new_double(double noundef %33) #6
  call void (ptr, ptr, ...) @g_variant_builder_add(ptr noundef nonnull %5, ptr noundef nonnull @.str.1, ptr noundef nonnull @.str.10, ptr noundef %34) #6
  %35 = call ptr @g_variant_new_boolean(i32 noundef 1) #6
  call void (ptr, ptr, ...) @g_variant_builder_add(ptr noundef nonnull %5, ptr noundef nonnull @.str.1, ptr noundef nonnull @.str.2, ptr noundef %35) #6
  %36 = call ptr (ptr, ...) @g_variant_new(ptr noundef nonnull @.str.3, ptr noundef nonnull @.str.4, ptr noundef nonnull %5) #6
  %37 = load ptr, ptr getelementptr inbounds nuw (i8, ptr @darktable, i64 200), align 8, !tbaa !6
  %38 = getelementptr inbounds nuw i8, ptr %37, i64 24
  %39 = load ptr, ptr %38, align 8, !tbaa !48
  %40 = call i32 @g_dbus_connection_emit_signal(ptr noundef %39, ptr noundef nonnull @.str.5, ptr noundef nonnull @.str.6, ptr noundef nonnull @.str.7, ptr noundef nonnull @.str.8, ptr noundef %36, ptr noundef nonnull %4) #6
  %41 = load ptr, ptr %4, align 8, !tbaa !52
  %.not5.i = icmp eq ptr %41, null
  br i1 %.not5.i, label %46, label %42

42:                                               ; preds = %28
  %43 = getelementptr inbounds nuw i8, ptr %41, i64 8
  %44 = load ptr, ptr %43, align 8, !tbaa !54
  call void (ptr, ...) @dt_print_ext(ptr noundef nonnull @.str.11, ptr noundef %44) #6
  %45 = load ptr, ptr %4, align 8, !tbaa !52
  call void @g_error_free(ptr noundef %45) #6
  br label %46

46:                                               ; preds = %42, %28
  call void @llvm.lifetime.end.p0(i64 128, ptr nonnull %5) #6
  call void @llvm.lifetime.end.p0(i64 8, ptr nonnull %4) #6
  br label %global_progress_start.exit

global_progress_start.exit:                       ; preds = %46, %25, %20, %3
  %47 = getelementptr inbounds nuw i8, ptr %0, i64 10176
  %48 = load ptr, ptr %47, align 8, !tbaa !78
  %.not20 = icmp eq ptr %48, null
  br i1 %.not20, label %54, label %49

49:                                               ; preds = %global_progress_start.exit
  %50 = getelementptr inbounds nuw i8, ptr %0, i64 10184
  %51 = load ptr, ptr %50, align 8, !tbaa !79
  %52 = call ptr %51(ptr noundef nonnull %48, i32 noundef %1, ptr noundef %2) #6
  %53 = getelementptr inbounds nuw i8, ptr %6, i64 64
  store ptr %52, ptr %53, align 8, !tbaa !80
  br label %54

54:                                               ; preds = %49, %global_progress_start.exit
  %55 = call i32 @pthread_mutex_unlock(ptr noundef nonnull %13) #6
  ret ptr %6
}